

Microchip Technology PIC18 PRO Macro Assembler V1.33 build 59893 
                                                                                               Wed Dec 09 21:12:54 2015

Microchip Technology Omniscient Code Generator (PRO mode) build 59893
     1                           	processor	18F4520
     2                           	fnconf	rparam,??,?,0
     3                           	opt	pw 120
     4                           	opt	pm
     5                           	psect	text0,global,reloc=2,class=CODE,delta=1
     6                           	psect	cinit,global,reloc=2,class=CODE,delta=1
     7                           	psect	bssCOMRAM,global,class=COMRAM,space=1,delta=1
     8                           	psect	cstackCOMRAM,global,class=COMRAM,space=1,delta=1
     9                           	psect	text1,global,reloc=2,class=CODE,delta=1
    10                           	psect	text2,global,reloc=2,class=CODE,delta=1
    11                           	psect	text3,global,reloc=2,class=CODE,delta=1
    12                           	psect	intsave_regs,global,class=BIGRAM,space=1,delta=1
    13                           	psect	rparam,global,class=COMRAM,space=1,delta=1
    14  0000                     _OSCCONbits	set	4051
    15  0000                     _TRISBbits	set	3987
    16  0000                     _TRISCbits	set	3988
    17  0000                     _RB4	set	31756
    18  0000                     _RC0	set	31760
    19                           
    20                           ; 0 bytes @ 0x5
    21 ;;
    22 ;;Main: autosize = 0, tempsize = 0, incstack = 0, save=0
    23 ;;
    24 ;; *************** function _main *****************
    25 ;; Defined at:
    26 ;;		line 40 in file "visitorSensorMain.c"
    27 ;; Parameters:    Size  Location     Type
    28 ;;		None
    29 ;; Auto vars:     Size  Location     Type
    30 ;;		None
    31 ;; Return value:  Size  Location     Type
    32 ;;		None               void
    33 ;; Registers used:
    34 ;;		wreg, status,2, status,0, cstack
    35 ;; Tracked objects:
    36 ;;		On entry : 0/0
    37 ;;		On exit  : 0/0
    38 ;;		Unchanged: 0/0
    39 ;; Data sizes:     COMRAM   BANK0   BANK1   BANK2   BANK3   BANK4   BANK5
    40 ;;      Params:         0       0       0       0       0       0       0
    41 ;;      Locals:         0       0       0       0       0       0       0
    42 ;;      Temps:          0       0       0       0       0       0       0
    43 ;;      Totals:         0       0       0       0       0       0       0
    44 ;;Total ram usage:        0 bytes
    45 ;; Hardware stack levels required when called:    1
    46 ;; This function calls:
    47 ;;		_SetupClock
    48 ;;		_msDelay
    49 ;;		_portInit
    50 ;; This function is called by:
    51 ;;		Startup code after reset
    52 ;; This function uses a non-reentrant model
    53 ;;
    54                           
    55                           	psect	text0
    56  007FA0                     __ptext0:
    57                           	opt stack 0
    58  007FA0                     _main:
    59                           	opt stack 30
    60                           
    61                           ;visitorSensorMain.c: 41: SetupClock();
    62                           
    63                           ;incstack = 0
    64  007FA0  ECB0  F03F         	call	_SetupClock	;wreg free
    65                           
    66                           ;visitorSensorMain.c: 42: portInit();
    67  007FA4  ECB4  F03F         	call	_portInit	;wreg free
    68  007FA8  D012               	goto	l629
    69  007FAA                     l31:
    70                           
    71                           ;visitorSensorMain.c: 54: if(!RC0){
    72  007FAA  B082               	btfsc	3970,0,c	;volatile
    73  007FAC  D010               	goto	l629
    74                           
    75                           ;visitorSensorMain.c: 55: msDelay(100);
    76  007FAE  6A02               	clrf	msDelay@x+1,c
    77  007FB0  0E64               	movlw	100
    78  007FB2  6E01               	movwf	msDelay@x,c
    79  007FB4  ECBD  F03F         	call	_msDelay	;wreg free
    80                           
    81                           ;visitorSensorMain.c: 56: if(!RC0){
    82  007FB8  B082               	btfsc	3970,0,c	;volatile
    83  007FBA  D009               	goto	l629
    84                           
    85                           ;visitorSensorMain.c: 57: msDelay(100);
    86  007FBC  6A02               	clrf	msDelay@x+1,c
    87  007FBE  0E64               	movlw	100
    88  007FC0  6E01               	movwf	msDelay@x,c
    89  007FC2  ECBD  F03F         	call	_msDelay	;wreg free
    90                           
    91                           ;visitorSensorMain.c: 58: RB4 = 1;
    92  007FC6  8881               	bsf	3969,4,c	;volatile
    93                           
    94                           ;visitorSensorMain.c: 59: direction = 1;
    95  007FC8  6A07               	clrf	_direction+1,c
    96  007FCA  0E01               	movlw	1
    97  007FCC  6E06               	movwf	_direction,c
    98  007FCE                     l629:
    99  007FCE  5007               	movf	_direction+1,w,c
   100  007FD0  1006               	iorwf	_direction,w,c
   101  007FD2  E112               	bnz	l641
   102  007FD4  D7EA               	goto	l31
   103  007FD6                     l36:
   104                           
   105                           ;visitorSensorMain.c: 64: if(!RC0){
   106  007FD6  B082               	btfsc	3970,0,c	;volatile
   107  007FD8  D00F               	goto	l641
   108                           
   109                           ;visitorSensorMain.c: 65: msDelay(100);
   110  007FDA  6A02               	clrf	msDelay@x+1,c
   111  007FDC  0E64               	movlw	100
   112  007FDE  6E01               	movwf	msDelay@x,c
   113  007FE0  ECBD  F03F         	call	_msDelay	;wreg free
   114                           
   115                           ;visitorSensorMain.c: 66: if(!RC0){
   116  007FE4  B082               	btfsc	3970,0,c	;volatile
   117  007FE6  D008               	goto	l641
   118                           
   119                           ;visitorSensorMain.c: 67: msDelay(100);
   120  007FE8  6A02               	clrf	msDelay@x+1,c
   121  007FEA  0E64               	movlw	100
   122  007FEC  6E01               	movwf	msDelay@x,c
   123  007FEE  ECBD  F03F         	call	_msDelay	;wreg free
   124                           
   125                           ;visitorSensorMain.c: 68: RB4 = 0;
   126  007FF2  9881               	bcf	3969,4,c	;volatile
   127                           
   128                           ;visitorSensorMain.c: 69: direction = 0;
   129  007FF4  6A06               	clrf	_direction,c
   130  007FF6  6A07               	clrf	_direction+1,c
   131  007FF8                     l641:
   132  007FF8  0406               	decf	_direction,w,c
   133  007FFA  1007               	iorwf	_direction+1,w,c
   134  007FFC  E1E8               	bnz	l629
   135  007FFE  D7EB               	goto	l36
   136  008000                     __end_of_main:
   137                           	opt stack 0
   138                           
   139                           	psect	cinit
   140  007F70                     __pcinit:
   141                           	opt stack 0
   142  007F70                     start_initialization:
   143                           	opt stack 0
   144  007F70                     __initialization:
   145                           	opt stack 0
   146                           
   147                           ; Clear objects allocated to COMRAM (2 bytes)
   148  007F70  6A07               	clrf	(__pbssCOMRAM+1)& (0+255),c
   149  007F72  6A06               	clrf	__pbssCOMRAM& (0+255),c
   150  007F74                     end_of_initialization:
   151                           	opt stack 0
   152  007F74                     __end_of__initialization:
   153                           	opt stack 0
   154  007F74  0100               	movlb	0
   155  007F76  EFD0  F03F         	goto	_main	;jump to C main() function
   156                           
   157                           	psect	bssCOMRAM
   158  000006                     __pbssCOMRAM:
   159                           	opt stack 0
   160  000006                     _direction:
   161                           	opt stack 0
   162  000006                     	ds	2
   163                           
   164                           	psect	cstackCOMRAM
   165  000001                     __pcstackCOMRAM:
   166                           	opt stack 0
   167  000001                     msDelay@x:
   168                           	opt stack 0
   169                           
   170                           ; 2 bytes @ 0x0
   171  000001                     	ds	2
   172  000003                     ??_msDelay:
   173                           
   174                           ; 0 bytes @ 0x2
   175  000003                     	ds	1
   176  000004                     msDelay@i:
   177                           	opt stack 0
   178                           
   179                           ; 2 bytes @ 0x3
   180  000004                     	ds	2
   181  000006                     
   182 ;; *************** function _portInit *****************
   183 ;; Defined at:
   184 ;;		line 32 in file "visitorSensorMain.c"
   185 ;; Parameters:    Size  Location     Type
   186 ;;		None
   187 ;; Auto vars:     Size  Location     Type
   188 ;;		None
   189 ;; Return value:  Size  Location     Type
   190 ;;		None               void
   191 ;; Registers used:
   192 ;;		None
   193 ;; Tracked objects:
   194 ;;		On entry : 0/0
   195 ;;		On exit  : 0/0
   196 ;;		Unchanged: 0/0
   197 ;; Data sizes:     COMRAM   BANK0   BANK1   BANK2   BANK3   BANK4   BANK5
   198 ;;      Params:         0       0       0       0       0       0       0
   199 ;;      Locals:         0       0       0       0       0       0       0
   200 ;;      Temps:          0       0       0       0       0       0       0
   201 ;;      Totals:         0       0       0       0       0       0       0
   202 ;;Total ram usage:        0 bytes
   203 ;; Hardware stack levels used:    1
   204 ;; This function calls:
   205 ;;		Nothing
   206 ;; This function is called by:
   207 ;;		_main
   208 ;; This function uses a non-reentrant model
   209 ;;
   210                           
   211                           	psect	text1
   212  007F68                     __ptext1:
   213                           	opt stack 0
   214  007F68                     _portInit:
   215                           	opt stack 30
   216                           
   217                           ;visitorSensorMain.c: 33: TRISBbits.RB4 = 0;
   218                           
   219                           ;incstack = 0
   220  007F68  9893               	bcf	3987,4,c	;volatile
   221                           
   222                           ;visitorSensorMain.c: 34: TRISCbits.RC0 = 1;
   223  007F6A  8094               	bsf	3988,0,c	;volatile
   224                           
   225                           ;visitorSensorMain.c: 35: RB4 = 0;
   226  007F6C  9881               	bcf	3969,4,c	;volatile
   227  007F6E  0012               	return	
   228  007F70                     __end_of_portInit:
   229                           	opt stack 0
   230                           
   231 ;; *************** function _msDelay *****************
   232 ;; Defined at:
   233 ;;		line 26 in file "visitorSensorMain.c"
   234 ;; Parameters:    Size  Location     Type
   235 ;;  x               2    0[COMRAM] unsigned int 
   236 ;; Auto vars:     Size  Location     Type
   237 ;;  i               2    3[COMRAM] int 
   238 ;; Return value:  Size  Location     Type
   239 ;;		None               void
   240 ;; Registers used:
   241 ;;		wreg, status,2, status,0
   242 ;; Tracked objects:
   243 ;;		On entry : 0/0
   244 ;;		On exit  : 0/0
   245 ;;		Unchanged: 0/0
   246 ;; Data sizes:     COMRAM   BANK0   BANK1   BANK2   BANK3   BANK4   BANK5
   247 ;;      Params:         2       0       0       0       0       0       0
   248 ;;      Locals:         2       0       0       0       0       0       0
   249 ;;      Temps:          1       0       0       0       0       0       0
   250 ;;      Totals:         5       0       0       0       0       0       0
   251 ;;Total ram usage:        5 bytes
   252 ;; Hardware stack levels used:    1
   253 ;; This function calls:
   254 ;;		Nothing
   255 ;; This function is called by:
   256 ;;		_main
   257 ;; This function uses a non-reentrant model
   258 ;;
   259                           
   260                           	psect	text2
   261  007F7A                     __ptext2:
   262                           	opt stack 0
   263  007F7A                     _msDelay:
   264                           	opt stack 30
   265                           
   266                           ;visitorSensorMain.c: 27: for(int i = 0; i < x; i++){
   267                           
   268                           ;incstack = 0
   269  007F7A  6A04               	clrf	msDelay@i,c
   270  007F7C  6A05               	clrf	msDelay@i+1,c
   271  007F7E  D009               	goto	l20
   272  007F80                     l611:
   273                           
   274                           ;visitorSensorMain.c: 28: _delay((unsigned long)((1)*(8000000/4000.0)));
   275  007F80  0E03               	movlw	3
   276  007F82  6E03               	movwf	??_msDelay& (0+255),c
   277  007F84  0E98               	movlw	152
   278  007F86                     u87:
   279  007F86  2EE8               	decfsz	wreg,f,c
   280  007F88  D7FE               	goto	u87
   281  007F8A  2E03               	decfsz	??_msDelay& (0+255),f,c
   282  007F8C  D7FC               	goto	u87
   283  007F8E  4A04               	infsnz	msDelay@i,f,c
   284  007F90  2A05               	incf	msDelay@i+1,f,c
   285  007F92                     l20:
   286  007F92  5001               	movf	msDelay@x,w,c
   287  007F94  5C04               	subwf	msDelay@i,w,c
   288  007F96  5002               	movf	msDelay@x+1,w,c
   289  007F98  5805               	subwfb	msDelay@i+1,w,c
   290  007F9A  B0D8               	btfsc	status,0,c
   291  007F9C  0012               	return	
   292  007F9E  D7F0               	goto	l611
   293  007FA0                     __end_of_msDelay:
   294                           	opt stack 0
   295                           wreg	equ	0xFE8
   296                           status	equ	0xFD8
   297                           
   298 ;; *************** function _SetupClock *****************
   299 ;; Defined at:
   300 ;;		line 19 in file "visitorSensorMain.c"
   301 ;; Parameters:    Size  Location     Type
   302 ;;		None
   303 ;; Auto vars:     Size  Location     Type
   304 ;;		None
   305 ;; Return value:  Size  Location     Type
   306 ;;		None               void
   307 ;; Registers used:
   308 ;;		None
   309 ;; Tracked objects:
   310 ;;		On entry : 0/0
   311 ;;		On exit  : 0/0
   312 ;;		Unchanged: 0/0
   313 ;; Data sizes:     COMRAM   BANK0   BANK1   BANK2   BANK3   BANK4   BANK5
   314 ;;      Params:         0       0       0       0       0       0       0
   315 ;;      Locals:         0       0       0       0       0       0       0
   316 ;;      Temps:          0       0       0       0       0       0       0
   317 ;;      Totals:         0       0       0       0       0       0       0
   318 ;;Total ram usage:        0 bytes
   319 ;; Hardware stack levels used:    1
   320 ;; This function calls:
   321 ;;		Nothing
   322 ;; This function is called by:
   323 ;;		_main
   324 ;; This function uses a non-reentrant model
   325 ;;
   326                           
   327                           	psect	text3
   328  007F60                     __ptext3:
   329                           	opt stack 0
   330  007F60                     _SetupClock:
   331                           	opt stack 30
   332                           
   333                           ;visitorSensorMain.c: 21: OSCCONbits.IRCF0 = 1;
   334                           
   335                           ;incstack = 0
   336  007F60  88D3               	bsf	4051,4,c	;volatile
   337                           
   338                           ;visitorSensorMain.c: 22: OSCCONbits.IRCF1 = 1;
   339  007F62  8AD3               	bsf	4051,5,c	;volatile
   340                           
   341                           ;visitorSensorMain.c: 23: OSCCONbits.IRCF2 = 1;
   342  007F64  8CD3               	bsf	4051,6,c	;volatile
   343  007F66  0012               	return	
   344  007F68                     __end_of_SetupClock:
   345                           	opt stack 0
   346  0000                     wreg	equ	0xFE8
   347                           status	equ	0xFD8
   348                           wreg	equ	0xFE8
   349                           status	equ	0xFD8
   350                           
   351                           	psect	rparam
   352  0000                     wreg	equ	0xFE8
   353                           status	equ	0xFD8


Data Sizes:
    Strings     0
    Constant    0
    Data        0
    BSS         2
    Persistent  0
    Stack       0

Auto Spaces:
    Space          Size  Autos    Used
    COMRAM          127      5       7
    BANK0           128      0       0
    BANK1           256      0       0
    BANK2           256      0       0
    BANK3           256      0       0
    BANK4           256      0       0
    BANK5           256      0       0

Pointer List with Targets:

    None.

Critical Paths under _main in COMRAM

    _main->_msDelay

Critical Paths under _main in BANK0

    None.

Critical Paths under _main in BANK1

    None.

Critical Paths under _main in BANK2

    None.

Critical Paths under _main in BANK3

    None.

Critical Paths under _main in BANK4

    None.

Critical Paths under _main in BANK5

    None.

Call Graph Tables:

 ---------------------------------------------------------------------------------
 (Depth) Function   	        Calls       Base Space   Used Autos Params    Refs
 ---------------------------------------------------------------------------------
 (0) _main                                                 0     0      0     166
                         _SetupClock
                            _msDelay
                           _portInit
 ---------------------------------------------------------------------------------
 (1) _portInit                                             0     0      0       0
 ---------------------------------------------------------------------------------
 (1) _msDelay                                              5     3      2     166
                                              0 COMRAM     5     3      2
 ---------------------------------------------------------------------------------
 (1) _SetupClock                                           0     0      0       0
 ---------------------------------------------------------------------------------
 Estimated maximum stack depth 1
 ---------------------------------------------------------------------------------

 Call Graph Graphs:

 _main (ROOT)
   _SetupClock
   _msDelay
   _portInit

 Address spaces:
Name               Size   Autos  Total    Cost      Usage
BIGRAM             5FF      0       0      17        0.0%
EEDATA             100      0       0       0        0.0%
BITBANK5           100      0       0      16        0.0%
BANK5              100      0       0      14        0.0%
BITBANK4           100      0       0      12        0.0%
BANK4              100      0       0      13        0.0%
BITBANK3           100      0       0      10        0.0%
BANK3              100      0       0      11        0.0%
BITBANK2           100      0       0       8        0.0%
BANK2              100      0       0       9        0.0%
BITBANK1           100      0       0       6        0.0%
BANK1              100      0       0       7        0.0%
BITBANK0            80      0       0       4        0.0%
BANK0               80      0       0       5        0.0%
BITCOMRAM           7F      0       0       0        0.0%
COMRAM              7F      5       7       1        5.5%
BITSFR               0      0       0      40        0.0%
SFR                  0      0       0      40        0.0%
STACK                0      0       0       2        0.0%
NULL                 0      0       0       0        0.0%
ABS                  0      0       7      15        0.0%
DATA                 0      0       7       3        0.0%
CODE                 0      0       0       0        0.0%


Microchip Technology PIC18 Macro Assembler V1.33 build 59893 
Symbol Table                                                                                   Wed Dec 09 21:12:54 2015

                     l20 7F92                       l31 7FAA                       l36 7FD6  
                     u87 7F86              __CFG_BORV$3 000000             __CFG_CP0$OFF 000000  
           __CFG_CP1$OFF 000000             __CFG_CP2$OFF 000000             __CFG_CP3$OFF 000000  
            __CFG_LVP$ON 000000                      l611 7F80                      l641 7FF8  
                    l629 7FCE             __CFG_CPB$OFF 000000                      _RC0 007C10  
                    _RB4 007C0C             __CFG_CPD$OFF 000000                      wreg 000FE8  
           __CFG_WDT$OFF 000000                     _main 7FA0                     start 0000  
          __CFG_IESO$OFF 000000            __CFG_MCLRE$ON 000000                    ?_main 0001  
          __CFG_PWRT$OFF 000000            __CFG_WRT0$OFF 000000            __CFG_WRT1$OFF 000000  
          __CFG_WRT2$OFF 000000            __CFG_WRT3$OFF 000000           __CFG_EBTR0$OFF 000000  
         __CFG_FCMEN$OFF 000000           __CFG_EBTR1$OFF 000000           __CFG_EBTR2$OFF 000000  
         __CFG_EBTR3$OFF 000000            __CFG_WRTB$OFF 000000            __CFG_WRTC$OFF 000000  
          __CFG_WRTD$OFF 000000          __end_of_msDelay 7FA0           __CFG_EBTRB$OFF 000000  
                  status 000FD8           __CFG_PBADEN$ON 000000          __initialization 7F70  
           __end_of_main 8000                   ??_main 0006            __activetblptr 000000  
         __CFG_XINST$OFF 000000           __CFG_STVREN$ON 000000               _SetupClock 7F60  
              ??_msDelay 0003         __end_of_portInit 7F70               __accesstop 0080  
__end_of__initialization 7F74           __pcstackCOMRAM 0001              ?_SetupClock 0001  
                __Hparam 0000                  __Lparam 0000                ?_portInit 0001  
                __pcinit 7F70                  __ramtop 0600                  __ptext0 7FA0  
                __ptext1 7F68                  __ptext2 7F7A                  __ptext3 7F60  
                _msDelay 7F7A     end_of_initialization 7F74      __size_of_SetupClock 0008  
             ??_portInit 0001                _TRISBbits 000F93                _TRISCbits 000F94  
    start_initialization 7F70         __CFG_OSC$INTIO67 000000             ??_SetupClock 0001  
       __CFG_LPT1OSC$OFF 000000              __pbssCOMRAM 0006       __end_of_SetupClock 7F68  
      __CFG_CCP2MX$PORTC 000000                _direction 0006        __size_of_portInit 0008  
               ?_msDelay 0001         __CFG_WDTPS$32768 000000                 __Hrparam 0000  
               __Lrparam 0000       __CFG_BOREN$SBORDIS 000000         __size_of_msDelay 0026  
          __size_of_main 0060                 _portInit 7F68                 msDelay@i 0004  
               msDelay@x 0001               _OSCCONbits 000FD3  
